(dp0
S'code_map'
p1
(dp2
I0
S'd'
p3
sI1
S'a'
p4
sI2
S'e'
p5
sI3
S'r'
p6
sI4
S'c'
p7
sI5
S'h'
p8
sI6
S's'
p9
sI7
S'f'
p10
sI8
S'i'
p11
sI9
S'm'
p12
sI10
S'b'
p13
sI11
S't'
p14
sI12
S'l'
p15
sI13
S'n'
p16
sI14
S'g'
p17
sI15
S'o'
p18
sI16
S'y'
p19
sI17
S' '
p20
sI18
S'u'
p21
sI19
S'\xc3'
p22
sI20
S'\xad'
p23
sI21
S'\xae'
p24
sI22
S'v'
p25
sI23
S'-'
p26
sI24
S'w'
p27
sI25
S'\xb3'
p28
sI26
S'\xba'
p29
sI27
S'p'
p30
sI28
S'\xbb'
p31
sI29
S'\xa9'
p32
sI30
S'\x8d'
p33
sI31
S'\xbd'
p34
sI32
S'<END>'
p35
ssS'nodes'
p36
I80
s.