(dp0
S'code_map'
p1
(dp2
I0
Vt
p3
sI1
Vr
p4
sI2
Vi
p5
sI3
Vc
p6
sI4
Ve
p7
sI5
Va
p8
sI6
Vo
p9
sI7
Vp
p10
sI8
Vs
p11
sI9
Vu
p12
sI10
Vh
p13
sI11
Vm
p14
sI12
Vl
p15
sI13
Vx
p16
sI14
Vy
p17
sI15
Vn
p18
sI16
Vg
p19
sI17
Vd
p20
sI18
Vk
p21
sI19
Vv
p22
sI20
Vz
p23
sI21
Vb
p24
sI22
Vj
p25
sI23
Vf
p26
sI24
Vw
p27
sI25
Vq
p28
sI26
S'<END>'
p29
ssS'nodes'
p30
I80
s.