(dp0
S'code_map'
p1
(dp2
I0
Vj
p3
sI1
Vo
p4
sI2
Vl
p5
sI3
Vt
p6
sI4
Ve
p7
sI5
Vn
p8
sI6
Vg
p9
sI7
Vy
p10
sI8
Vm
p11
sI9
Vh
p12
sI10
Vi
p13
sI11
Vp
p14
sI12
Vk
p15
sI13
Va
p16
sI14
Vs
p17
sI15
Vb
p18
sI16
Vr
p19
sI17
Vc
p20
sI18
Vd
p21
sI19
Vz
p22
sI20
Vu
p23
sI21
Vf
p24
sI22
Vv
p25
sI23
Vw
p26
sI24
Vx
p27
sI25
Vq
p28
sI26
V 
p29
sI27
S'<END>'
p30
ssS'nodes'
p31
I80
s.